; Function Attrs: mustprogress nounwind uwtable
define hidden void @_ZN11opencv_onnx11TensorProtoD2Ev(ptr noundef nonnull align 8 dereferenceable(208) %0) unnamed_addr #7 align 2 personality ptr @__gxx_personality_v0 {
  %2 = getelementptr inbounds nuw i8, ptr %0, i64 8
  %3 = load i64, ptr %2, align 8, !tbaa !33
  %4 = and i64 %3, 1
  %.not.i = icmp eq i64 %4, 0
  %5 = and i64 %3, -4
  %6 = inttoptr i64 %5 to ptr
  br i1 %.not.i, label %_ZNK6google8protobuf11MessageLite21GetArenaForAllocationEv.exit, label %7, !prof !43

7:                                                ; preds = %1
  %8 = load ptr, ptr %6, align 8, !tbaa !44
  br label %_ZNK6google8protobuf11MessageLite21GetArenaForAllocationEv.exit

_ZNK6google8protobuf11MessageLite21GetArenaForAllocationEv.exit: ; preds = %7, %1
  %.0.i.i = phi ptr [ %8, %7 ], [ %6, %1 ]
  %.not = icmp eq ptr %.0.i.i, null
  br i1 %.not, label %9, label %_ZN6google8protobuf8internal16InternalMetadata6DeleteINS0_15UnknownFieldSetEEEvv.exit

9:                                                ; preds = %_ZNK6google8protobuf11MessageLite21GetArenaForAllocationEv.exit
  invoke void @_ZN11opencv_onnx11TensorProto10SharedDtorEv(ptr noundef nonnull align 8 dereferenceable(208) %0)
          to label %10 unwind label %31

10:                                               ; preds = %9
  %11 = load i64, ptr %2, align 8, !tbaa !33
  %12 = and i64 %11, 1
  %.not.i1 = icmp eq i64 %12, 0
  br i1 %.not.i1, label %_ZN6google8protobuf8internal16InternalMetadata6DeleteINS0_15UnknownFieldSetEEEvv.exit, label %13

13:                                               ; preds = %10
  invoke void @_ZN6google8protobuf8internal16InternalMetadata21DeleteOutOfLineHelperINS0_15UnknownFieldSetEEEvv(ptr noundef nonnull align 8 dereferenceable(8) %2)
          to label %_ZN6google8protobuf8internal16InternalMetadata6DeleteINS0_15UnknownFieldSetEEEvv.exit unwind label %31

_ZN6google8protobuf8internal16InternalMetadata6DeleteINS0_15UnknownFieldSetEEEvv.exit: ; preds = %10, %13, %_ZNK6google8protobuf11MessageLite21GetArenaForAllocationEv.exit
  %14 = getelementptr inbounds nuw i8, ptr %0, i64 144
  tail call void @_ZN6google8protobuf13RepeatedFieldImED1Ev(ptr noundef nonnull align 8 dereferenceable(16) %14) #22
  %15 = getelementptr inbounds nuw i8, ptr %0, i64 128
  tail call void @_ZN6google8protobuf13RepeatedFieldIdED1Ev(ptr noundef nonnull align 8 dereferenceable(16) %15) #22
  %16 = getelementptr inbounds nuw i8, ptr %0, i64 104
  tail call void @_ZN6google8protobuf13RepeatedFieldIlED1Ev(ptr noundef nonnull align 8 dereferenceable(16) %16) #22
  %17 = getelementptr inbounds nuw i8, ptr %0, i64 80
  tail call void @_ZN6google8protobuf16RepeatedPtrFieldINSt7__cxx1112basic_stringIcSt11char_traitsIcESaIcEEEED1Ev(ptr noundef nonnull align 8 dereferenceable(24) %17) #22
  %18 = getelementptr inbounds nuw i8, ptr %0, i64 56
  tail call void @_ZN6google8protobuf13RepeatedFieldIiED1Ev(ptr noundef nonnull align 8 dereferenceable(16) %18) #22
  %19 = getelementptr inbounds nuw i8, ptr %0, i64 40
  tail call void @_ZN6google8protobuf13RepeatedFieldIfED1Ev(ptr noundef nonnull align 8 dereferenceable(16) %19) #22
  %20 = getelementptr inbounds nuw i8, ptr %0, i64 24
  tail call void @_ZN6google8protobuf13RepeatedFieldIlED1Ev(ptr noundef nonnull align 8 dereferenceable(16) %20) #22
  store ptr getelementptr inbounds nuw inrange(-16, 104) (i8, ptr @_ZTVN6google8protobuf11MessageLiteE, i64 16), ptr %0, align 8, !tbaa !34
  %21 = load i64, ptr %2, align 8, !tbaa !33
  %22 = and i64 %21, 2
  %.not.i.i = icmp eq i64 %22, 0
  br i1 %.not.i.i, label %_ZN6google8protobuf11MessageLiteD2Ev.exit, label %23

23:                                               ; preds = %_ZN6google8protobuf8internal16InternalMetadata6DeleteINS0_15UnknownFieldSetEEEvv.exit
  %24 = and i64 %21, 1
  %.not1.i.i = icmp eq i64 %24, 0
  %25 = and i64 %21, -4
  %26 = inttoptr i64 %25 to ptr
  br i1 %.not1.i.i, label %_ZNK6google8protobuf8internal16InternalMetadata5arenaEv.exit.i.i, label %27, !prof !43

27:                                               ; preds = %23
  %28 = load ptr, ptr %26, align 8, !tbaa !44
  br label %_ZNK6google8protobuf8internal16InternalMetadata5arenaEv.exit.i.i

_ZNK6google8protobuf8internal16InternalMetadata5arenaEv.exit.i.i: ; preds = %27, %23
  %.0.i.i.i = phi ptr [ %28, %27 ], [ %26, %23 ]
  %29 = icmp eq ptr %.0.i.i.i, null
  br i1 %29, label %_ZN6google8protobuf11MessageLiteD2Ev.exit, label %30

30:                                               ; preds = %_ZNK6google8protobuf8internal16InternalMetadata5arenaEv.exit.i.i
  tail call void @_ZN6google8protobuf8internal15ThreadSafeArenaD1Ev(ptr noundef nonnull align 8 dereferenceable(32) %.0.i.i.i) #22
  tail call void @_ZdlPv(ptr noundef nonnull %.0.i.i.i) #23
  br label %_ZN6google8protobuf11MessageLiteD2Ev.exit

_ZN6google8protobuf11MessageLiteD2Ev.exit:        ; preds = %_ZN6google8protobuf8internal16InternalMetadata6DeleteINS0_15UnknownFieldSetEEEvv.exit, %_ZNK6google8protobuf8internal16InternalMetadata5arenaEv.exit.i.i, %30
  ret void

31:                                               ; preds = %13, %9
  %32 = landingpad { ptr, i32 }
          catch ptr null
  %33 = extractvalue { ptr, i32 } %32, 0
  tail call void @__clang_call_terminate(ptr %33) #21
  unreachable
}